target datalayout = "e-m:e-p270:32:32-p271:32:32-p272:64:64-i64:64-i128:128-f80:128-n8:16:32:64-S128"
target triple = "x86_64-pc-linux-gnu"

%struct.omp_module_nthreads_t = type { i32, i32, %"struct.gmx::EnumerationArray" }
%"struct.gmx::EnumerationArray" = type { [10 x i32] }

@_ZL5modth = internal global %struct.omp_module_nthreads_t zeroinitializer, align 4

; Function Attrs: mustprogress nounwind uwtable
define linkonce_odr noundef nonnull align 4 dereferenceable(4) ptr @_ZN3gmx16EnumerationArrayI17ModuleMultiThreadiLS1_10EEixES1_(ptr noundef nonnull align 4 dereferenceable(40) %0, i32 noundef %1) #3 comdat align 2 {
  %3 = alloca ptr, align 8
  %4 = alloca i32, align 4
  store ptr %0, ptr %3, align 8
  store i32 %1, ptr %4, align 4
  %5 = load ptr, ptr %3, align 8
  %6 = getelementptr inbounds %"struct.gmx::EnumerationArray", ptr %5, i32 0, i32 0
  %7 = load i32, ptr %4, align 4
  %8 = sext i32 %7 to i64
  %9 = getelementptr inbounds [10 x i32], ptr %6, i64 0, i64 %8
  ret ptr %9
}

; Function Attrs: mustprogress nounwind uwtable
define noundef i32 @_Z20gmx_omp_nthreads_get17ModuleMultiThread(i32 noundef %0) #3 {
  %2 = alloca i32, align 4
  %3 = alloca i32, align 4
  store i32 %0, ptr %3, align 4
  %4 = load i32, ptr %3, align 4
  %5 = icmp slt i32 %4, 0
  br i1 %5, label %9, label %6

6:                                                ; preds = %1
  %7 = load i32, ptr %3, align 4
  %8 = icmp sge i32 %7, 10
  br i1 %8, label %9, label %10

9:                                                ; preds = %6, %1
  store i32 -1, ptr %2, align 4
  br label %14

10:                                               ; preds = %6
  %11 = load i32, ptr %3, align 4
  %12 = call noundef nonnull align 4 dereferenceable(4) ptr @_ZN3gmx16EnumerationArrayI17ModuleMultiThreadiLS1_10EEixES1_(ptr noundef nonnull align 4 dereferenceable(40) getelementptr inbounds (%struct.omp_module_nthreads_t, ptr @_ZL5modth, i32 0, i32 2), i32 noundef %11)
  %13 = load i32, ptr %12, align 4
  store i32 %13, ptr %2, align 4
  br label %14

14:                                               ; preds = %10, %9
  %15 = load i32, ptr %2, align 4
  ret i32 %15
}