; Function Attrs: mustprogress nofree norecurse nosync nounwind willreturn memory(read, argmem: none, inaccessiblemem: none) uwtable
define noundef i32 @_Z20gmx_omp_nthreads_get17ModuleMultiThread(i32 noundef %0) local_unnamed_addr #9 {
  %or.cond = icmp ugt i32 %0, 9
  br i1 %or.cond, label %6, label %2

2:                                                ; preds = %1
  %3 = zext nneg i32 %0 to i64
  %4 = getelementptr inbounds [10 x i32], ptr getelementptr inbounds (%struct.omp_module_nthreads_t, ptr @_ZL5modth, i64 0, i32 2), i64 0, i64 %3
  %5 = load i32, ptr %4, align 4
  br label %6

6:                                                ; preds = %1, %2
  %.0 = phi i32 [ %5, %2 ], [ -1, %1 ]
  ret i32 %.0
}